; Function Attrs: mustprogress nounwind uwtable
define dso_local void @_ZN4llvm8codeview23DebugLinesSubsectionRef10initializeENS_18BinaryStreamReaderE(ptr dead_on_unwind noalias writable sret(%"class.llvm::Error") align 8 %0, ptr noundef nonnull align 8 dereferenceable(88) %1, ptr noundef nonnull %2) local_unnamed_addr #0 align 2 {
  %4 = alloca %"class.llvm::ArrayRef.29", align 8
  call void @llvm.lifetime.start.p0(i64 16, ptr nonnull %4)
  call void @llvm.memset.p0.i64(ptr noundef nonnull align 8 dereferenceable(16) %4, i8 0, i64 16, i1 false), !noalias !31
  call void @_ZN4llvm18BinaryStreamReader9readBytesERNS_8ArrayRefIhEEj(ptr dead_on_unwind writable sret(%"class.llvm::Error") align 8 %0, ptr noundef nonnull align 8 dereferenceable(64) %2, ptr noundef nonnull align 8 dereferenceable(16) %4, i32 noundef 12) #16
  %5 = load ptr, ptr %0, align 8
  %.not.i = icmp eq ptr %5, null
  br i1 %.not.i, label %7, label %6

6:                                                ; preds = %3
  call void @llvm.lifetime.end.p0(i64 16, ptr nonnull %4)
  br label %_ZN4llvm12ErrorSuccessD2Ev.exit

7:                                                ; preds = %3
  %8 = getelementptr inbounds nuw i8, ptr %1, i64 16
  %9 = load ptr, ptr %4, align 8, !noalias !31
  store ptr %9, ptr %8, align 8, !noalias !31
  call void @llvm.lifetime.end.p0(i64 16, ptr nonnull %4)
  %10 = getelementptr inbounds nuw i8, ptr %1, i64 24
  %11 = getelementptr inbounds i8, ptr %1, i64 72
  store ptr %9, ptr %11, align 8
  %12 = getelementptr inbounds i8, ptr %2, i64 48
  %13 = load i8, ptr %12, align 8
  %14 = trunc i8 %13 to i1
  br i1 %14, label %15, label %18

15:                                               ; preds = %7
  %16 = getelementptr inbounds i8, ptr %2, i64 40
  %17 = load i64, ptr %16, align 8
  br label %_ZNK4llvm18BinaryStreamReader14bytesRemainingEv.exit

18:                                               ; preds = %7
  %19 = getelementptr inbounds i8, ptr %2, i64 24
  %20 = load ptr, ptr %19, align 8
  %.not.i.i.i = icmp eq ptr %20, null
  br i1 %.not.i.i.i, label %_ZNK4llvm18BinaryStreamReader14bytesRemainingEv.exit, label %21

21:                                               ; preds = %18
  %22 = load ptr, ptr %20, align 8
  %23 = getelementptr inbounds i8, ptr %22, i64 40
  %24 = load ptr, ptr %23, align 8
  %25 = call noundef i64 %24(ptr noundef nonnull align 8 dereferenceable(8) %20) #16
  %26 = getelementptr inbounds i8, ptr %2, i64 32
  %27 = load i64, ptr %26, align 8
  %28 = sub i64 %25, %27
  br label %_ZNK4llvm18BinaryStreamReader14bytesRemainingEv.exit

_ZNK4llvm18BinaryStreamReader14bytesRemainingEv.exit: ; preds = %15, %18, %21
  %.0.i.i.i = phi i64 [ %17, %15 ], [ %28, %21 ], [ 0, %18 ]
  %29 = getelementptr inbounds nuw i8, ptr %2, i64 56
  %30 = load i64, ptr %29, align 8
  %31 = sub i64 %.0.i.i.i, %30
  %32 = trunc i64 %31 to i32
  call void @_ZN4llvm18BinaryStreamReader9readArrayINS_8codeview15LineColumnEntryENS2_19LineColumnExtractorEEENS_5ErrorERNS_14VarStreamArrayIT_T0_EEjj(ptr dead_on_unwind nonnull writable sret(%"class.llvm::Error") align 8 %0, ptr noundef nonnull align 8 dereferenceable(64) %2, ptr noundef nonnull align 8 dereferenceable(60) %10, i32 noundef %32, i32 noundef 0)
  br label %_ZN4llvm12ErrorSuccessD2Ev.exit

_ZN4llvm12ErrorSuccessD2Ev.exit:                  ; preds = %_ZNK4llvm18BinaryStreamReader14bytesRemainingEv.exit, %6
  ret void
}